; Function Attrs: mustprogress uwtable
define void @_ZN32pxrInternal_v0_24__pxrReserved__47UsdImagingPiPrototypePropagatingSceneIndex_Impl18_InstancerObserver16_UpdateInstancerERKNS_7SdfPathERKNS_16HdSceneIndexPrimE(ptr noundef nonnull align 8 dereferenceable(112) %0, ptr noundef nonnull align 4 dereferenceable(8) %1, ptr noundef nonnull align 8 dereferenceable(24) %2) local_unnamed_addr #0 align 2 personality ptr @__gxx_personality_v0 {
  %4 = alloca %"class.pxrInternal_v0_24__pxrReserved__::VtArray", align 8
  %5 = getelementptr inbounds nuw i8, ptr %0, i64 64
  %6 = tail call noundef nonnull align 8 dereferenceable(48) ptr @_ZNSt3mapIN32pxrInternal_v0_24__pxrReserved__7SdfPathES_IS1_St10unique_ptrINS0_47UsdImagingPiPrototypePropagatingSceneIndex_Impl18_InstancerObserverESt14default_deleteIS4_EESt4lessIS1_ESaISt4pairIKS1_S7_EEES9_SaISA_ISB_SE_EEEixERSB_(ptr noundef nonnull align 8 dereferenceable(48) %5, ptr noundef nonnull align 4 dereferenceable(8) %1)
  call void @_ZN32pxrInternal_v0_24__pxrReserved__47UsdImagingPiPrototypePropagatingSceneIndex_Impl14_GetPrototypesERKNS_16HdSceneIndexPrimE(ptr dead_on_unwind nonnull writable sret(%"class.pxrInternal_v0_24__pxrReserved__::VtArray") align 8 %4, ptr noundef nonnull align 8 dereferenceable(24) %2)
  invoke void @_ZN32pxrInternal_v0_24__pxrReserved__47UsdImagingPiPrototypePropagatingSceneIndex_Impl18_InstancerObserver26_UpdateInstancerPrototypesEPSt3mapINS_7SdfPathESt10unique_ptrIS1_St14default_deleteIS1_EESt4lessIS3_ESaISt4pairIKS3_S7_EEERSB_RKNS_7VtArrayIS3_EE(ptr noundef nonnull align 8 dereferenceable(112) %0, ptr noundef nonnull %6, ptr noundef nonnull align 4 dereferenceable(8) %1, ptr noundef nonnull align 8 dereferenceable(40) %4)
          to label %7 unwind label %53

7:                                                ; preds = %3
  %8 = getelementptr inbounds nuw i8, ptr %4, i64 32
  %9 = load ptr, ptr %8, align 8
  %.not.i = icmp eq ptr %9, null
  br i1 %.not.i, label %_ZN32pxrInternal_v0_24__pxrReserved__7VtArrayINS_7SdfPathEED2Ev.exit, label %10

10:                                               ; preds = %7
  %11 = getelementptr inbounds nuw i8, ptr %4, i64 24
  %12 = load ptr, ptr %11, align 8
  %.not27.i = icmp eq ptr %12, null
  br i1 %.not27.i, label %13, label %42

13:                                               ; preds = %10
  %14 = getelementptr inbounds i8, ptr %9, i64 -16
  %15 = atomicrmw sub ptr %14, i64 1 release, align 8
  %16 = icmp eq i64 %15, 1
  br i1 %16, label %17, label %_ZN32pxrInternal_v0_24__pxrReserved__7VtArrayINS_7SdfPathEED2Ev.exit

17:                                               ; preds = %13
  fence acquire
  %18 = load ptr, ptr %8, align 8
  %19 = load i64, ptr %4, align 8
  %20 = getelementptr inbounds %"class.pxrInternal_v0_24__pxrReserved__::SdfPath", ptr %18, i64 %19
  %.not2829.i = icmp eq i64 %19, 0
  br i1 %.not2829.i, label %._crit_edge.i, label %.lr.ph.i

.lr.ph.i:                                         ; preds = %17, %_ZN32pxrInternal_v0_24__pxrReserved__7SdfPathD2Ev.exit.i
  %.02430.i = phi ptr [ %39, %_ZN32pxrInternal_v0_24__pxrReserved__7SdfPathD2Ev.exit.i ], [ %18, %17 ]
  %21 = load i32, ptr %.02430.i, align 4
  %.not.i.i.i = icmp eq i32 %21, 0
  br i1 %.not.i.i.i, label %_ZN32pxrInternal_v0_24__pxrReserved__7SdfPathD2Ev.exit.i, label %22

22:                                               ; preds = %.lr.ph.i
  %23 = and i32 %21, 255
  %24 = lshr i32 %21, 8
  %25 = zext nneg i32 %23 to i64
  %26 = getelementptr inbounds [257 x ptr], ptr @_ZN32pxrInternal_v0_24__pxrReserved__8Sdf_PoolINS_15Sdf_PathPrimTagELj24ELj8ELj16384EE13_regionStartsE, i64 0, i64 %25
  %27 = load ptr, ptr %26, align 8
  %28 = mul nuw nsw i32 %24, 24
  %29 = zext nneg i32 %28 to i64
  %30 = getelementptr inbounds i8, ptr %27, i64 %29
  %31 = getelementptr inbounds nuw i8, ptr %30, i64 8
  %32 = atomicrmw sub ptr %31, i32 1 seq_cst, align 4
  %33 = and i32 %32, 2147483647
  %34 = icmp eq i32 %33, 1
  br i1 %34, label %35, label %_ZN32pxrInternal_v0_24__pxrReserved__7SdfPathD2Ev.exit.i

35:                                               ; preds = %22
  invoke void @_ZNK32pxrInternal_v0_24__pxrReserved__12Sdf_PathNode8_DestroyEv(ptr noundef nonnull align 8 dereferenceable(16) %30)
          to label %_ZN32pxrInternal_v0_24__pxrReserved__7SdfPathD2Ev.exit.i unwind label %36

36:                                               ; preds = %35
  %37 = landingpad { ptr, i32 }
          catch ptr null
  %38 = extractvalue { ptr, i32 } %37, 0
  call void @__clang_call_terminate(ptr %38) #27
  unreachable

_ZN32pxrInternal_v0_24__pxrReserved__7SdfPathD2Ev.exit.i: ; preds = %35, %22, %.lr.ph.i
  %39 = getelementptr inbounds i8, ptr %.02430.i, i64 8
  %.not28.i = icmp eq ptr %39, %20
  br i1 %.not28.i, label %._crit_edge.loopexit.i, label %.lr.ph.i, !llvm.loop !40

._crit_edge.loopexit.i:                           ; preds = %_ZN32pxrInternal_v0_24__pxrReserved__7SdfPathD2Ev.exit.i
  %.pre.i = load ptr, ptr %8, align 8
  br label %._crit_edge.i

._crit_edge.i:                                    ; preds = %._crit_edge.loopexit.i, %17
  %40 = phi ptr [ %.pre.i, %._crit_edge.loopexit.i ], [ %18, %17 ]
  %41 = getelementptr inbounds i8, ptr %40, i64 -16
  call void @_ZdlPv(ptr noundef nonnull %41) #23
  br label %_ZN32pxrInternal_v0_24__pxrReserved__7VtArrayINS_7SdfPathEED2Ev.exit

42:                                               ; preds = %10
  %43 = atomicrmw sub ptr %12, i64 1 release, align 8
  %44 = icmp eq i64 %43, 1
  br i1 %44, label %45, label %_ZN32pxrInternal_v0_24__pxrReserved__7VtArrayINS_7SdfPathEED2Ev.exit

45:                                               ; preds = %42
  fence acquire
  %46 = load ptr, ptr %11, align 8
  %47 = getelementptr inbounds nuw i8, ptr %46, i64 8
  %48 = load ptr, ptr %47, align 8
  %.not.i.i = icmp eq ptr %48, null
  br i1 %.not.i.i, label %_ZN32pxrInternal_v0_24__pxrReserved__7VtArrayINS_7SdfPathEED2Ev.exit, label %49

49:                                               ; preds = %45
  invoke void %48(ptr noundef nonnull %46)
          to label %_ZN32pxrInternal_v0_24__pxrReserved__7VtArrayINS_7SdfPathEED2Ev.exit unwind label %50

50:                                               ; preds = %49
  %51 = landingpad { ptr, i32 }
          catch ptr null
  %52 = extractvalue { ptr, i32 } %51, 0
  call void @__clang_call_terminate(ptr %52) #27
  unreachable

_ZN32pxrInternal_v0_24__pxrReserved__7VtArrayINS_7SdfPathEED2Ev.exit: ; preds = %13, %._crit_edge.i, %42, %45, %49, %7
  ret void

53:                                               ; preds = %3
  %54 = landingpad { ptr, i32 }
          cleanup
  invoke void @_ZN32pxrInternal_v0_24__pxrReserved__7VtArrayINS_7SdfPathEE7_DecRefEv(ptr noundef nonnull align 8 dereferenceable(40) %4)
          to label %_ZN32pxrInternal_v0_24__pxrReserved__7VtArrayINS_7SdfPathEED2Ev.exit5 unwind label %55

55:                                               ; preds = %53
  %56 = landingpad { ptr, i32 }
          catch ptr null
  %57 = extractvalue { ptr, i32 } %56, 0
  call void @__clang_call_terminate(ptr %57) #27
  unreachable

_ZN32pxrInternal_v0_24__pxrReserved__7VtArrayINS_7SdfPathEED2Ev.exit5: ; preds = %53
  resume { ptr, i32 } %54
}